target datalayout = "e-m:e-p270:32:32-p271:32:32-p272:64:64-i64:64-i128:128-f80:128-n8:16:32:64-S128"
target triple = "x86_64-pc-linux-gnu"

; Function Attrs: mustprogress nounwind uwtable
define noundef i64 @_ZN8nanobind6detail12obj_len_hintEP7_object(ptr noundef %0) #4 personality ptr @__gxx_personality_v0 {
  %2 = alloca ptr, align 8
  %3 = alloca i64, align 8
  store ptr %0, ptr %2, align 8
  call void @llvm.lifetime.start.p0(i64 8, ptr %3) #20
  %4 = load ptr, ptr %2, align 8
  %5 = invoke i64 @PyObject_LengthHint(ptr noundef %4, i64 noundef 0)
          to label %6 unwind label %13

6:                                                ; preds = %1
  store i64 %5, ptr %3, align 8
  %7 = load i64, ptr %3, align 8
  %8 = icmp slt i64 %7, 0
  br i1 %8, label %9, label %11

9:                                                ; preds = %6
  invoke void @PyErr_Clear()
          to label %10 unwind label %13

10:                                               ; preds = %9
  store i64 0, ptr %3, align 8
  br label %11

11:                                               ; preds = %10, %6
  %12 = load i64, ptr %3, align 8
  call void @llvm.lifetime.end.p0(i64 8, ptr %3) #20
  ret i64 %12

13:                                               ; preds = %9, %1
  %14 = landingpad { ptr, i32 }
          catch ptr null
  %15 = extractvalue { ptr, i32 } %14, 0
  call void @__clang_call_terminate(ptr %15) #22
  unreachable
}