; Function Attrs: mustprogress nounwind uwtable
define noundef range(i64 0, -9223372036854775808) i64 @_ZN8nanobind6detail12obj_len_hintEP7_object(ptr noundef %0) local_unnamed_addr #9 personality ptr @__gxx_personality_v0 {
  %2 = invoke i64 @PyObject_LengthHint(ptr noundef %0, i64 noundef 0)
          to label %3 unwind label %7

3:                                                ; preds = %1
  %4 = icmp slt i64 %2, 0
  br i1 %4, label %5, label %6

5:                                                ; preds = %3
  invoke void @PyErr_Clear()
          to label %6 unwind label %7

6:                                                ; preds = %5, %3
  %.0 = phi i64 [ %2, %3 ], [ 0, %5 ]
  ret i64 %.0

7:                                                ; preds = %5, %1
  %8 = landingpad { ptr, i32 }
          catch ptr null
  %9 = extractvalue { ptr, i32 } %8, 0
  tail call void @__clang_call_terminate(ptr %9) #29
  unreachable
}